target datalayout = "e-m:e-p270:32:32-p271:32:32-p272:64:64-i64:64-i128:128-f80:128-n8:16:32:64-S128"
target triple = "x86_64-pc-linux-gnu"

%struct.OSQPCscMatrix = type { i64, i64, ptr, ptr, ptr, i64, i64 }

; Function Attrs: nounwind uwtable
define void @csc_set_data(ptr noundef %0, i64 noundef %1, i64 noundef %2, i64 noundef %3, ptr noundef %4, ptr noundef %5, ptr noundef %6) #0 {
  %8 = alloca ptr, align 8
  %9 = alloca i64, align 8
  %10 = alloca i64, align 8
  %11 = alloca i64, align 8
  %12 = alloca ptr, align 8
  %13 = alloca ptr, align 8
  %14 = alloca ptr, align 8
  store ptr %0, ptr %8, align 8
  store i64 %1, ptr %9, align 8
  store i64 %2, ptr %10, align 8
  store i64 %3, ptr %11, align 8
  store ptr %4, ptr %12, align 8
  store ptr %5, ptr %13, align 8
  store ptr %6, ptr %14, align 8
  %15 = load i64, ptr %9, align 8
  %16 = load ptr, ptr %8, align 8
  %17 = getelementptr inbounds %struct.OSQPCscMatrix, ptr %16, i32 0, i32 0
  store i64 %15, ptr %17, align 8
  %18 = load i64, ptr %10, align 8
  %19 = load ptr, ptr %8, align 8
  %20 = getelementptr inbounds %struct.OSQPCscMatrix, ptr %19, i32 0, i32 1
  store i64 %18, ptr %20, align 8
  %21 = load ptr, ptr %8, align 8
  %22 = getelementptr inbounds %struct.OSQPCscMatrix, ptr %21, i32 0, i32 6
  store i64 -1, ptr %22, align 8
  %23 = load i64, ptr %11, align 8
  %24 = load ptr, ptr %8, align 8
  %25 = getelementptr inbounds %struct.OSQPCscMatrix, ptr %24, i32 0, i32 5
  store i64 %23, ptr %25, align 8
  %26 = load ptr, ptr %12, align 8
  %27 = load ptr, ptr %8, align 8
  %28 = getelementptr inbounds %struct.OSQPCscMatrix, ptr %27, i32 0, i32 4
  store ptr %26, ptr %28, align 8
  %29 = load ptr, ptr %13, align 8
  %30 = load ptr, ptr %8, align 8
  %31 = getelementptr inbounds %struct.OSQPCscMatrix, ptr %30, i32 0, i32 3
  store ptr %29, ptr %31, align 8
  %32 = load ptr, ptr %14, align 8
  %33 = load ptr, ptr %8, align 8
  %34 = getelementptr inbounds %struct.OSQPCscMatrix, ptr %33, i32 0, i32 2
  store ptr %32, ptr %34, align 8
  ret void
}