; Function Attrs: mustprogress nofree norecurse nosync nounwind willreturn memory(argmem: write) uwtable
define void @csc_set_data(ptr nocapture noundef writeonly %0, i64 noundef %1, i64 noundef %2, i64 noundef %3, ptr noundef %4, ptr noundef %5, ptr noundef %6) local_unnamed_addr #5 {
  store i64 %1, ptr %0, align 8
  %8 = getelementptr inbounds i8, ptr %0, i64 8
  store i64 %2, ptr %8, align 8
  %9 = getelementptr inbounds i8, ptr %0, i64 48
  store i64 -1, ptr %9, align 8
  %10 = getelementptr inbounds i8, ptr %0, i64 40
  store i64 %3, ptr %10, align 8
  %11 = getelementptr inbounds i8, ptr %0, i64 32
  store ptr %4, ptr %11, align 8
  %12 = getelementptr inbounds i8, ptr %0, i64 24
  store ptr %5, ptr %12, align 8
  %13 = getelementptr inbounds i8, ptr %0, i64 16
  store ptr %6, ptr %13, align 8
  ret void
}